target datalayout = "e-m:e-p270:32:32-p271:32:32-p272:64:64-i64:64-i128:128-f80:128-n8:16:32:64-S128"
target triple = "x86_64-pc-linux-gnu"

%struct.part_row_data_t = type { ptr, i32, i32, ptr, i32 }

@.str = private unnamed_addr constant [12 x i8] c"part_data.c\00", align 1
@node_record_count = external global i32, align 4
@__func__.part_data_dup_row = private unnamed_addr constant [18 x i8] c"part_data_dup_row\00", align 1

; Function Attrs: nounwind uwtable
define dso_local ptr @part_data_dup_row(ptr noundef %0, i16 noundef zeroext %1) #0 {
  %3 = alloca ptr, align 8
  %4 = alloca ptr, align 8
  %5 = alloca i16, align 2
  %6 = alloca ptr, align 8
  %7 = alloca i32, align 4
  %8 = alloca i32, align 4
  %9 = alloca i32, align 4
  store ptr %0, ptr %4, align 8
  store i16 %1, ptr %5, align 2
  call void @llvm.lifetime.start.p0(i64 8, ptr %6) #5
  call void @llvm.lifetime.start.p0(i64 4, ptr %7) #5
  call void @llvm.lifetime.start.p0(i64 4, ptr %8) #5
  %10 = load i16, ptr %5, align 2
  %11 = zext i16 %10 to i32
  %12 = icmp eq i32 %11, 0
  br i1 %12, label %16, label %13

13:                                               ; preds = %2
  %14 = load ptr, ptr %4, align 8
  %15 = icmp ne ptr %14, null
  br i1 %15, label %17, label %16

16:                                               ; preds = %13, %2
  store ptr null, ptr %3, align 8
  store i32 1, ptr %9, align 4
  br label %164

17:                                               ; preds = %13
  %18 = load i16, ptr %5, align 2
  %19 = zext i16 %18 to i64
  %20 = call ptr @slurm_xcalloc(i64 noundef %19, i64 noundef 32, i1 noundef zeroext true, i1 noundef zeroext false, ptr noundef @.str, i32 noundef 507, ptr noundef @__func__.part_data_dup_row)
  store ptr %20, ptr %6, align 8
  store i32 0, ptr %7, align 4
  br label %21

21:                                               ; preds = %159, %17
  %22 = load i32, ptr %7, align 4
  %23 = load i16, ptr %5, align 2
  %24 = zext i16 %23 to i32
  %25 = icmp slt i32 %22, %24
  br i1 %25, label %26, label %162

26:                                               ; preds = %21
  %27 = load ptr, ptr %4, align 8
  %28 = load i32, ptr %7, align 4
  %29 = sext i32 %28 to i64
  %30 = getelementptr inbounds %struct.part_row_data_t, ptr %27, i64 %29
  %31 = getelementptr inbounds nuw %struct.part_row_data_t, ptr %30, i32 0, i32 2
  %32 = load i32, ptr %31, align 4
  %33 = load ptr, ptr %6, align 8
  %34 = load i32, ptr %7, align 4
  %35 = sext i32 %34 to i64
  %36 = getelementptr inbounds %struct.part_row_data_t, ptr %33, i64 %35
  %37 = getelementptr inbounds nuw %struct.part_row_data_t, ptr %36, i32 0, i32 2
  store i32 %32, ptr %37, align 4
  %38 = load ptr, ptr %4, align 8
  %39 = load i32, ptr %7, align 4
  %40 = sext i32 %39 to i64
  %41 = getelementptr inbounds %struct.part_row_data_t, ptr %38, i64 %40
  %42 = getelementptr inbounds nuw %struct.part_row_data_t, ptr %41, i32 0, i32 1
  %43 = load i32, ptr %42, align 8
  %44 = load ptr, ptr %6, align 8
  %45 = load i32, ptr %7, align 4
  %46 = sext i32 %45 to i64
  %47 = getelementptr inbounds %struct.part_row_data_t, ptr %44, i64 %46
  %48 = getelementptr inbounds nuw %struct.part_row_data_t, ptr %47, i32 0, i32 1
  store i32 %43, ptr %48, align 8
  %49 = load ptr, ptr %4, align 8
  %50 = load i32, ptr %7, align 4
  %51 = sext i32 %50 to i64
  %52 = getelementptr inbounds %struct.part_row_data_t, ptr %49, i64 %51
  %53 = getelementptr inbounds nuw %struct.part_row_data_t, ptr %52, i32 0, i32 3
  %54 = load ptr, ptr %53, align 8
  %55 = icmp ne ptr %54, null
  br i1 %55, label %56, label %116

56:                                               ; preds = %26
  %57 = call ptr @build_core_array()
  %58 = load ptr, ptr %6, align 8
  %59 = load i32, ptr %7, align 4
  %60 = sext i32 %59 to i64
  %61 = getelementptr inbounds %struct.part_row_data_t, ptr %58, i64 %60
  %62 = getelementptr inbounds nuw %struct.part_row_data_t, ptr %61, i32 0, i32 3
  store ptr %57, ptr %62, align 8
  store i32 0, ptr %8, align 4
  br label %63

63:                                               ; preds = %101, %56
  %64 = load i32, ptr %8, align 4
  %65 = load i32, ptr @node_record_count, align 4
  %66 = icmp slt i32 %64, %65
  br i1 %66, label %67, label %104

67:                                               ; preds = %63
  %68 = load ptr, ptr %4, align 8
  %69 = load i32, ptr %7, align 4
  %70 = sext i32 %69 to i64
  %71 = getelementptr inbounds %struct.part_row_data_t, ptr %68, i64 %70
  %72 = getelementptr inbounds nuw %struct.part_row_data_t, ptr %71, i32 0, i32 3
  %73 = load ptr, ptr %72, align 8
  %74 = load i32, ptr %8, align 4
  %75 = sext i32 %74 to i64
  %76 = getelementptr inbounds ptr, ptr %73, i64 %75
  %77 = load ptr, ptr %76, align 8
  %78 = icmp ne ptr %77, null
  br i1 %78, label %80, label %79

79:                                               ; preds = %67
  br label %101

80:                                               ; preds = %67
  %81 = load ptr, ptr %4, align 8
  %82 = load i32, ptr %7, align 4
  %83 = sext i32 %82 to i64
  %84 = getelementptr inbounds %struct.part_row_data_t, ptr %81, i64 %83
  %85 = getelementptr inbounds nuw %struct.part_row_data_t, ptr %84, i32 0, i32 3
  %86 = load ptr, ptr %85, align 8
  %87 = load i32, ptr %8, align 4
  %88 = sext i32 %87 to i64
  %89 = getelementptr inbounds ptr, ptr %86, i64 %88
  %90 = load ptr, ptr %89, align 8
  %91 = call ptr @bit_copy(ptr noundef %90)
  %92 = load ptr, ptr %6, align 8
  %93 = load i32, ptr %7, align 4
  %94 = sext i32 %93 to i64
  %95 = getelementptr inbounds %struct.part_row_data_t, ptr %92, i64 %94
  %96 = getelementptr inbounds nuw %struct.part_row_data_t, ptr %95, i32 0, i32 3
  %97 = load ptr, ptr %96, align 8
  %98 = load i32, ptr %8, align 4
  %99 = sext i32 %98 to i64
  %100 = getelementptr inbounds ptr, ptr %97, i64 %99
  store ptr %91, ptr %100, align 8
  br label %101

101:                                              ; preds = %80, %79
  %102 = load i32, ptr %8, align 4
  %103 = add nsw i32 %102, 1
  store i32 %103, ptr %8, align 4
  br label %63, !llvm.loop !23

104:                                              ; preds = %63
  %105 = load ptr, ptr %4, align 8
  %106 = load i32, ptr %7, align 4
  %107 = sext i32 %106 to i64
  %108 = getelementptr inbounds %struct.part_row_data_t, ptr %105, i64 %107
  %109 = getelementptr inbounds nuw %struct.part_row_data_t, ptr %108, i32 0, i32 4
  %110 = load i32, ptr %109, align 8
  %111 = load ptr, ptr %6, align 8
  %112 = load i32, ptr %7, align 4
  %113 = sext i32 %112 to i64
  %114 = getelementptr inbounds %struct.part_row_data_t, ptr %111, i64 %113
  %115 = getelementptr inbounds nuw %struct.part_row_data_t, ptr %114, i32 0, i32 4
  store i32 %110, ptr %115, align 8
  br label %116

116:                                              ; preds = %104, %26
  %117 = load ptr, ptr %6, align 8
  %118 = load i32, ptr %7, align 4
  %119 = sext i32 %118 to i64
  %120 = getelementptr inbounds %struct.part_row_data_t, ptr %117, i64 %119
  %121 = getelementptr inbounds nuw %struct.part_row_data_t, ptr %120, i32 0, i32 1
  %122 = load i32, ptr %121, align 8
  %123 = icmp eq i32 %122, 0
  br i1 %123, label %124, label %125

124:                                              ; preds = %116
  br label %159

125:                                              ; preds = %116
  %126 = load ptr, ptr %6, align 8
  %127 = load i32, ptr %7, align 4
  %128 = sext i32 %127 to i64
  %129 = getelementptr inbounds %struct.part_row_data_t, ptr %126, i64 %128
  %130 = getelementptr inbounds nuw %struct.part_row_data_t, ptr %129, i32 0, i32 1
  %131 = load i32, ptr %130, align 8
  %132 = zext i32 %131 to i64
  %133 = call ptr @slurm_xcalloc(i64 noundef %132, i64 noundef 8, i1 noundef zeroext true, i1 noundef zeroext false, ptr noundef @.str, i32 noundef 525, ptr noundef @__func__.part_data_dup_row)
  %134 = load ptr, ptr %6, align 8
  %135 = load i32, ptr %7, align 4
  %136 = sext i32 %135 to i64
  %137 = getelementptr inbounds %struct.part_row_data_t, ptr %134, i64 %136
  %138 = getelementptr inbounds nuw %struct.part_row_data_t, ptr %137, i32 0, i32 0
  store ptr %133, ptr %138, align 8
  %139 = load ptr, ptr %6, align 8
  %140 = load i32, ptr %7, align 4
  %141 = sext i32 %140 to i64
  %142 = getelementptr inbounds %struct.part_row_data_t, ptr %139, i64 %141
  %143 = getelementptr inbounds nuw %struct.part_row_data_t, ptr %142, i32 0, i32 0
  %144 = load ptr, ptr %143, align 8
  %145 = load ptr, ptr %4, align 8
  %146 = load i32, ptr %7, align 4
  %147 = sext i32 %146 to i64
  %148 = getelementptr inbounds %struct.part_row_data_t, ptr %145, i64 %147
  %149 = getelementptr inbounds nuw %struct.part_row_data_t, ptr %148, i32 0, i32 0
  %150 = load ptr, ptr %149, align 8
  %151 = load ptr, ptr %6, align 8
  %152 = load i32, ptr %7, align 4
  %153 = sext i32 %152 to i64
  %154 = getelementptr inbounds %struct.part_row_data_t, ptr %151, i64 %153
  %155 = getelementptr inbounds nuw %struct.part_row_data_t, ptr %154, i32 0, i32 2
  %156 = load i32, ptr %155, align 4
  %157 = zext i32 %156 to i64
  %158 = mul i64 8, %157
  call void @llvm.memcpy.p0.p0.i64(ptr align 8 %144, ptr align 8 %150, i64 %158, i1 false)
  br label %159

159:                                              ; preds = %125, %124
  %160 = load i32, ptr %7, align 4
  %161 = add nsw i32 %160, 1
  store i32 %161, ptr %7, align 4
  br label %21, !llvm.loop !24

162:                                              ; preds = %21
  %163 = load ptr, ptr %6, align 8
  store ptr %163, ptr %3, align 8
  store i32 1, ptr %9, align 4
  br label %164

164:                                              ; preds = %162, %16
  call void @llvm.lifetime.end.p0(i64 4, ptr %8) #5
  call void @llvm.lifetime.end.p0(i64 4, ptr %7) #5
  call void @llvm.lifetime.end.p0(i64 8, ptr %6) #5
  %165 = load ptr, ptr %3, align 8
  ret ptr %165
}