; Function Attrs: nounwind uwtable
define dso_local ptr @part_data_dup_row(ptr noundef readonly captures(address_is_null) %0, i16 noundef zeroext %1) local_unnamed_addr #0 {
  %3 = icmp ne i16 %1, 0
  %4 = icmp ne ptr %0, null
  %or.cond = and i1 %4, %3
  br i1 %or.cond, label %5, label %.loopexit

5:                                                ; preds = %2
  %6 = zext i16 %1 to i64
  %7 = tail call ptr @slurm_xcalloc(i64 noundef %6, i64 noundef 32, i1 noundef zeroext true, i1 noundef zeroext false, ptr noundef nonnull @.str, i32 noundef 507, ptr noundef nonnull @__func__.part_data_dup_row) #8
  %wide.trip.count = zext i16 %1 to i64
  br label %8

8:                                                ; preds = %5, %49
  %indvars.iv57 = phi i64 [ 0, %5 ], [ %indvars.iv.next58, %49 ]
  %9 = getelementptr inbounds nuw %struct.part_row_data_t, ptr %0, i64 %indvars.iv57
  %10 = getelementptr inbounds nuw i8, ptr %9, i64 12
  %11 = load i32, ptr %10, align 4
  %12 = getelementptr inbounds nuw %struct.part_row_data_t, ptr %7, i64 %indvars.iv57
  %13 = getelementptr inbounds nuw i8, ptr %12, i64 12
  store i32 %11, ptr %13, align 4
  %14 = getelementptr inbounds nuw i8, ptr %9, i64 8
  %15 = load i32, ptr %14, align 8
  %16 = getelementptr inbounds nuw i8, ptr %12, i64 8
  store i32 %15, ptr %16, align 8
  %17 = getelementptr inbounds nuw i8, ptr %9, i64 16
  %18 = load ptr, ptr %17, align 8
  %.not = icmp eq ptr %18, null
  br i1 %.not, label %39, label %19

19:                                               ; preds = %8
  %20 = tail call ptr @build_core_array() #8
  %21 = getelementptr inbounds nuw i8, ptr %12, i64 16
  store ptr %20, ptr %21, align 8
  %22 = load i32, ptr @node_record_count, align 4
  %23 = icmp sgt i32 %22, 0
  br i1 %23, label %.lr.ph, label %._crit_edge

.lr.ph:                                           ; preds = %19, %32
  %24 = phi i32 [ %33, %32 ], [ %22, %19 ]
  %indvars.iv = phi i64 [ %indvars.iv.next, %32 ], [ 0, %19 ]
  %25 = load ptr, ptr %17, align 8
  %26 = getelementptr inbounds nuw ptr, ptr %25, i64 %indvars.iv
  %27 = load ptr, ptr %26, align 8
  %.not53 = icmp eq ptr %27, null
  br i1 %.not53, label %32, label %28

28:                                               ; preds = %.lr.ph
  %29 = tail call ptr @bit_copy(ptr noundef nonnull %27) #8
  %30 = load ptr, ptr %21, align 8
  %31 = getelementptr inbounds nuw ptr, ptr %30, i64 %indvars.iv
  store ptr %29, ptr %31, align 8
  %.pre = load i32, ptr @node_record_count, align 4
  br label %32

32:                                               ; preds = %.lr.ph, %28
  %33 = phi i32 [ %24, %.lr.ph ], [ %.pre, %28 ]
  %indvars.iv.next = add nuw nsw i64 %indvars.iv, 1
  %34 = sext i32 %33 to i64
  %35 = icmp slt i64 %indvars.iv.next, %34
  br i1 %35, label %.lr.ph, label %._crit_edge, !llvm.loop !26

._crit_edge:                                      ; preds = %32, %19
  %36 = getelementptr inbounds nuw i8, ptr %9, i64 24
  %37 = load i32, ptr %36, align 8
  %38 = getelementptr inbounds nuw i8, ptr %12, i64 24
  store i32 %37, ptr %38, align 8
  %.pr = load i32, ptr %16, align 8
  br label %39

39:                                               ; preds = %._crit_edge, %8
  %40 = phi i32 [ %.pr, %._crit_edge ], [ %15, %8 ]
  %41 = icmp eq i32 %40, 0
  br i1 %41, label %49, label %42

42:                                               ; preds = %39
  %43 = zext i32 %40 to i64
  %44 = tail call ptr @slurm_xcalloc(i64 noundef %43, i64 noundef 8, i1 noundef zeroext true, i1 noundef zeroext false, ptr noundef nonnull @.str, i32 noundef 525, ptr noundef nonnull @__func__.part_data_dup_row) #8
  store ptr %44, ptr %12, align 8
  %45 = load ptr, ptr %9, align 8
  %46 = load i32, ptr %13, align 4
  %47 = zext i32 %46 to i64
  %48 = shl nuw nsw i64 %47, 3
  tail call void @llvm.memcpy.p0.p0.i64(ptr align 8 %44, ptr align 8 %45, i64 %48, i1 false)
  br label %49

49:                                               ; preds = %39, %42
  %indvars.iv.next58 = add nuw nsw i64 %indvars.iv57, 1
  %exitcond.not = icmp eq i64 %indvars.iv.next58, %wide.trip.count
  br i1 %exitcond.not, label %.loopexit, label %8, !llvm.loop !27

.loopexit:                                        ; preds = %49, %2
  %.048 = phi ptr [ null, %2 ], [ %7, %49 ]
  ret ptr %.048
}